(dp1
S'filedelete'
p2
ccopy_reg
_reconstructor
p3
(ctwisted.plugin
CachedDropin
p4
c__builtin__
object
p5
NtRp6
(dp7
S'moduleName'
p8
S'twisted.plugins.filedelete'
p9
sS'description'
p10
NsS'plugins'
p11
(lp12
g3
(ctwisted.plugin
CachedPlugin
p13
g5
NtRp14
(dp15
S'provided'
p16
(lp17
ctwisted.plugin
IPlugin
p18
acpyrikura.ipyrikura
IPyrikuraPlugin
p19
asS'dropin'
p20
g6
sS'name'
p21
S'factory'
p22
sg10
NsbasbsS'imagethumb'
p23
g3
(g4
g5
NtRp24
(dp25
g8
S'twisted.plugins.imagethumb'
p26
sg10
Nsg11
(lp27
g3
(g13
g5
NtRp28
(dp29
g16
(lp30
g18
ag19
asg20
g24
sg21
S'factory'
p31
sg10
NsbasbsS'arduino'
p32
g3
(g4
g5
NtRp33
(dp34
g8
S'twisted.plugins.arduino'
p35
sg10
Nsg11
(lp36
sbsS'shuttercamera'
p37
g3
(g4
g5
NtRp38
(dp39
g8
S'twisted.plugins.shuttercamera'
p40
sg10
Nsg11
(lp41
g3
(g13
g5
NtRp42
(dp43
g16
(lp44
g18
ag19
asg20
g38
sg21
S'factory'
p45
sg10
NsbasbsS'filespool'
p46
g3
(g4
g5
NtRp47
(dp48
g8
S'twisted.plugins.filespool'
p49
sg10
Nsg11
(lp50
g3
(g13
g5
NtRp51
(dp52
g16
(lp53
g18
ag19
asg20
g47
sg21
g22
sg10
NsbasbsS'filecopy'
p54
g3
(g4
g5
NtRp55
(dp56
g8
S'twisted.plugins.filecopy'
p57
sg10
Nsg11
(lp58
g3
(g13
g5
NtRp59
(dp60
g16
(lp61
g18
ag19
asg20
g55
sg21
g31
sg10
NsbasbsS'composer'
p62
g3
(g4
g5
NtRp63
(dp64
g8
S'twisted.plugins.composer'
p65
sg10
Nsg11
(lp66
g3
(g13
g5
NtRp67
(dp68
g16
(lp69
g18
ag19
asg20
g63
sg21
S'factory'
p70
sg10
NsbasbsS'filewatcher'
p71
g3
(g4
g5
NtRp72
(dp73
g8
S'twisted.plugins.filewatcher'
p74
sg10
Nsg11
(lp75
g3
(g13
g5
NtRp76
(dp77
g16
(lp78
g18
asg20
g72
sg21
S'factory'
p79
sg10
NsbasbsS'imagetweet'
p80
g3
(g4
g5
NtRp81
(dp82
g8
S'twisted.plugins.imagetweet'
p83
sg10
Nsg11
(lp84
sbs.