(dp1
S'filedelete'
p2
ccopy_reg
_reconstructor
p3
(ctwisted.plugin
CachedDropin
p4
c__builtin__
object
p5
NtRp6
(dp7
S'moduleName'
p8
S'twisted.plugins.filedelete'
p9
sS'description'
p10
NsS'plugins'
p11
(lp12
g3
(ctwisted.plugin
CachedPlugin
p13
g5
NtRp14
(dp15
S'provided'
p16
(lp17
ctwisted.plugin
IPlugin
p18
actailor.itailor
iTailorPlugin
p19
asS'dropin'
p20
g6
sS'name'
p21
S'factory'
p22
sg10
NsbasbsS'imagethumb'
p23
g3
(g4
g5
NtRp24
(dp25
g8
S'twisted.plugins.imagethumb'
p26
sg10
Nsg11
(lp27
g3
(g13
g5
NtRp28
(dp29
g16
(lp30
g18
ag19
asg20
g24
sg21
g22
sg10
NsbasbsS'shuttercamera'
p31
g3
(g4
g5
NtRp32
(dp33
g8
S'twisted.plugins.shuttercamera'
p34
sg10
Nsg11
(lp35
g3
(g13
g5
NtRp36
(dp37
g16
(lp38
g18
ag19
asg20
g32
sg21
S'factory'
p39
sg10
NsbasbsS'arduino'
p40
g3
(g4
g5
NtRp41
(dp42
g8
S'twisted.plugins.arduino'
p43
sg10
Nsg11
(lp44
sbsS'filespool'
p45
g3
(g4
g5
NtRp46
(dp47
g8
S'twisted.plugins.filespool'
p48
sg10
Nsg11
(lp49
g3
(g13
g5
NtRp50
(dp51
g16
(lp52
g18
ag19
asg20
g46
sg21
g22
sg10
NsbasbsS'filecopy'
p53
g3
(g4
g5
NtRp54
(dp55
g8
S'twisted.plugins.filecopy'
p56
sg10
Nsg11
(lp57
g3
(g13
g5
NtRp58
(dp59
g16
(lp60
g18
ag19
asg20
g54
sg21
g22
sg10
NsbasbsS'composer'
p61
g3
(g4
g5
NtRp62
(dp63
g8
S'twisted.plugins.composer'
p64
sg10
Nsg11
(lp65
g3
(g13
g5
NtRp66
(dp67
g16
(lp68
g18
ag19
asg20
g62
sg21
g22
sg10
NsbasbsS'filewatcher'
p69
g3
(g4
g5
NtRp70
(dp71
g8
S'twisted.plugins.filewatcher'
p72
sg10
Nsg11
(lp73
g3
(g13
g5
NtRp74
(dp75
g16
(lp76
g18
asg20
g70
sg21
g22
sg10
NsbasbsS'imagetweet'
p77
g3
(g4
g5
NtRp78
(dp79
g8
S'twisted.plugins.imagetweet'
p80
sg10
Nsg11
(lp81
sbs.